; ModuleID = '45/2116.c'
source_filename = "45/2116.c"
target datalayout = "e-m:e-p270:32:32-p271:32:32-p272:64:64-i64:64-f80:128-n8:16:32:64-S128"
target triple = "x86_64-pc-linux-gnu"

@.str = private unnamed_addr constant [3 x i8] c"%d\00", align 1

; Function Attrs: noinline nounwind uwtable
define dso_local i32 @main() #0 {
  %1 = alloca i32, align 4
  %2 = alloca [100 x i8], align 16
  %3 = alloca [50 x i8], align 16
  %4 = alloca [50 x i8], align 16
  %5 = alloca i32, align 4
  %6 = alloca i32, align 4
  %7 = alloca i32, align 4
  %8 = alloca i32, align 4
  %9 = alloca i32, align 4
  %10 = alloca i32, align 4
  %11 = alloca i32, align 4
  store i32 0, i32* %1, align 4
  store i32 0, i32* %5, align 4
  store i32 0, i32* %10, align 4
  store i32 0, i32* %11, align 4
  %12 = getelementptr inbounds [100 x i8], [100 x i8]* %2, i64 0, i64 0
  %13 = call i32 (i8*, ...) bitcast (i32 (...)* @gets to i32 (i8*, ...)*)(i8* %12)
  %14 = getelementptr inbounds [100 x i8], [100 x i8]* %2, i64 0, i64 0
  %15 = call i64 @strlen(i8* %14) #3
  %16 = trunc i64 %15 to i32
  store i32 %16, i32* %9, align 4
  store i32 0, i32* %7, align 4
  br label %17

17:                                               ; preds = %48, %0
  %18 = load i32, i32* %7, align 4
  %19 = load i32, i32* %9, align 4
  %20 = sub nsw i32 %19, 1
  %21 = icmp sle i32 %18, %20
  br i1 %21, label %22, label %51

22:                                               ; preds = %17
  %23 = load i32, i32* %7, align 4
  %24 = sext i32 %23 to i64
  %25 = getelementptr inbounds [100 x i8], [100 x i8]* %2, i64 0, i64 %24
  %26 = load i8, i8* %25, align 1
  %27 = sext i8 %26 to i32
  %28 = icmp ne i32 %27, 32
  br i1 %28, label %29, label %39

29:                                               ; preds = %22
  %30 = load i32, i32* %7, align 4
  %31 = sext i32 %30 to i64
  %32 = getelementptr inbounds [100 x i8], [100 x i8]* %2, i64 0, i64 %31
  %33 = load i8, i8* %32, align 1
  %34 = load i32, i32* %7, align 4
  %35 = sext i32 %34 to i64
  %36 = getelementptr inbounds [50 x i8], [50 x i8]* %4, i64 0, i64 %35
  store i8 %33, i8* %36, align 1
  %37 = load i32, i32* %10, align 4
  %38 = add nsw i32 %37, 1
  store i32 %38, i32* %10, align 4
  br label %39

39:                                               ; preds = %29, %22
  %40 = load i32, i32* %7, align 4
  %41 = sext i32 %40 to i64
  %42 = getelementptr inbounds [100 x i8], [100 x i8]* %2, i64 0, i64 %41
  %43 = load i8, i8* %42, align 1
  %44 = sext i8 %43 to i32
  %45 = icmp eq i32 %44, 32
  br i1 %45, label %46, label %47

46:                                               ; preds = %39
  br label %51

47:                                               ; preds = %39
  br label %48

48:                                               ; preds = %47
  %49 = load i32, i32* %7, align 4
  %50 = add nsw i32 %49, 1
  store i32 %50, i32* %7, align 4
  br label %17

51:                                               ; preds = %46, %17
  %52 = load i32, i32* %10, align 4
  %53 = add nsw i32 %52, 1
  store i32 %53, i32* %7, align 4
  br label %54

54:                                               ; preds = %71, %51
  %55 = load i32, i32* %7, align 4
  %56 = load i32, i32* %9, align 4
  %57 = sub nsw i32 %56, 1
  %58 = icmp sle i32 %55, %57
  br i1 %58, label %59, label %74

59:                                               ; preds = %54
  %60 = load i32, i32* %7, align 4
  %61 = sext i32 %60 to i64
  %62 = getelementptr inbounds [100 x i8], [100 x i8]* %2, i64 0, i64 %61
  %63 = load i8, i8* %62, align 1
  %64 = load i32, i32* %5, align 4
  %65 = sext i32 %64 to i64
  %66 = getelementptr inbounds [50 x i8], [50 x i8]* %3, i64 0, i64 %65
  store i8 %63, i8* %66, align 1
  %67 = load i32, i32* %5, align 4
  %68 = add nsw i32 %67, 1
  store i32 %68, i32* %5, align 4
  %69 = load i32, i32* %11, align 4
  %70 = add nsw i32 %69, 1
  store i32 %70, i32* %11, align 4
  br label %71

71:                                               ; preds = %59
  %72 = load i32, i32* %7, align 4
  %73 = add nsw i32 %72, 1
  store i32 %73, i32* %7, align 4
  br label %54

74:                                               ; preds = %54
  store i32 0, i32* %7, align 4
  br label %75

75:                                               ; preds = %130, %74
  %76 = load i32, i32* %7, align 4
  %77 = load i32, i32* %11, align 4
  %78 = icmp slt i32 %76, %77
  br i1 %78, label %79, label %133

79:                                               ; preds = %75
  %80 = load i32, i32* %7, align 4
  %81 = sext i32 %80 to i64
  %82 = getelementptr inbounds [50 x i8], [50 x i8]* %3, i64 0, i64 %81
  %83 = load i8, i8* %82, align 1
  %84 = sext i8 %83 to i32
  %85 = getelementptr inbounds [50 x i8], [50 x i8]* %4, i64 0, i64 0
  %86 = load i8, i8* %85, align 16
  %87 = sext i8 %86 to i32
  %88 = icmp eq i32 %84, %87
  br i1 %88, label %89, label %129

89:                                               ; preds = %79
  store i32 1, i32* %6, align 4
  %90 = load i32, i32* %7, align 4
  %91 = add nsw i32 %90, 1
  store i32 %91, i32* %8, align 4
  br label %92

92:                                               ; preds = %118, %89
  %93 = load i32, i32* %8, align 4
  %94 = load i32, i32* %7, align 4
  %95 = load i32, i32* %10, align 4
  %96 = add nsw i32 %94, %95
  %97 = sub nsw i32 %96, 1
  %98 = icmp sle i32 %93, %97
  br i1 %98, label %99, label %121

99:                                               ; preds = %92
  %100 = load i32, i32* %8, align 4
  %101 = sext i32 %100 to i64
  %102 = getelementptr inbounds [50 x i8], [50 x i8]* %3, i64 0, i64 %101
  %103 = load i8, i8* %102, align 1
  %104 = sext i8 %103 to i32
  %105 = load i32, i32* %8, align 4
  %106 = load i32, i32* %7, align 4
  %107 = sub nsw i32 %105, %106
  %108 = sext i32 %107 to i64
  %109 = getelementptr inbounds [50 x i8], [50 x i8]* %4, i64 0, i64 %108
  %110 = load i8, i8* %109, align 1
  %111 = sext i8 %110 to i32
  %112 = icmp eq i32 %104, %111
  br i1 %112, label %113, label %116

113:                                              ; preds = %99
  %114 = load i32, i32* %6, align 4
  %115 = add nsw i32 %114, 1
  store i32 %115, i32* %6, align 4
  br label %117

116:                                              ; preds = %99
  br label %121

117:                                              ; preds = %113
  br label %118

118:                                              ; preds = %117
  %119 = load i32, i32* %8, align 4
  %120 = add nsw i32 %119, 1
  store i32 %120, i32* %8, align 4
  br label %92

121:                                              ; preds = %116, %92
  %122 = load i32, i32* %6, align 4
  %123 = load i32, i32* %10, align 4
  %124 = icmp eq i32 %122, %123
  br i1 %124, label %125, label %128

125:                                              ; preds = %121
  %126 = load i32, i32* %7, align 4
  %127 = call i32 (i8*, ...) @printf(i8* getelementptr inbounds ([3 x i8], [3 x i8]* @.str, i64 0, i64 0), i32 %126)
  br label %133

128:                                              ; preds = %121
  br label %129

129:                                              ; preds = %128, %79
  br label %130

130:                                              ; preds = %129
  %131 = load i32, i32* %7, align 4
  %132 = add nsw i32 %131, 1
  store i32 %132, i32* %7, align 4
  br label %75

133:                                              ; preds = %125, %75
  ret i32 0
}

declare dso_local i32 @gets(...) #1

; Function Attrs: nounwind readonly
declare dso_local i64 @strlen(i8*) #2

declare dso_local i32 @printf(i8*, ...) #1


!llvm.module.flags = !{!0}
!llvm.ident = !{!1}

!0 = !{i32 1, !"wchar_size", i32 4}
!1 = !{!"clang version 10.0.0-4ubuntu1 "}
